(ccopy_reg
_reconstructor
p1
(c__main__
FileInfo
p2
c__builtin__
tuple
p3
(S'https://eyes.nasa.gov/eyesproduct/EYES/os/win'
p4
VNASA's Eyes.exe
p5
I29635648
V
ttRp6
(lp7
(lp8
I0
aI204800
aI1023999
aa(lp9
I1024000
aI1351680
aI2047999
aa(lp10
I2048000
aI2979840
aI3071999
aa(lp11
I3072000
aI3522560
aI4095999
aa(lp12
I4096000
aI4464640
aI5119999
aa(lp13
I5120000
aI5519360
aI6143999
aa(lp14
I6144000
aI6543360
aI7167999
aa(lp15
I7168000
aI7516160
aI8191999
aa(lp16
I8192000
aI8898560
aI9215999
aa(lp17
I9216000
aI10240000
aI10239999
aa(lp18
I10240000
aI10240000
aI11263999
aa(lp19
I11264000
aI11264000
aI12287999
aa(lp20
I12288000
aI12288000
aI13311999
aa(lp21
I13312000
aI13312000
aI14335999
aa(lp22
I14336000
aI14336000
aI15359999
aa(lp23
I15360000
aI15360000
aI16383999
aa(lp24
I16384000
aI16384000
aI17407999
aa(lp25
I17408000
aI17408000
aI18431999
aa(lp26
I18432000
aI18432000
aI19455999
aa(lp27
I19456000
aI19456000
aI20479999
aa(lp28
I20480000
aI20480000
aI21503999
aa(lp29
I21504000
aI21504000
aI22527999
aa(lp30
I22528000
aI22528000
aI23551999
aa(lp31
I23552000
aI23552000
aI24575999
aa(lp32
I24576000
aI24576000
aI25599999
aa(lp33
I25600000
aI25600000
aI26623999
aa(lp34
I26624000
aI26624000
aI27647999
aa(lp35
I27648000
aI27648000
aI29635647
aatp36
.